; Function Attrs: nounwind uwtable
define dso_local void @strlenCommand(ptr noundef %0) local_unnamed_addr #0 {
  %2 = getelementptr inbounds nuw i8, ptr %0, i64 96
  %3 = load ptr, ptr %2, align 8, !tbaa !9
  %4 = getelementptr inbounds nuw i8, ptr %3, i64 8
  %5 = load ptr, ptr %4, align 8, !tbaa !29
  %6 = load ptr, ptr getelementptr inbounds nuw (i8, ptr @shared, i64 24), align 8, !tbaa !69
  %7 = tail call ptr @lookupKeyReadOrReply(ptr noundef %0, ptr noundef %5, ptr noundef %6) #11
  %8 = icmp eq ptr %7, null
  br i1 %8, label %13, label %9

9:                                                ; preds = %1
  %10 = tail call i32 @checkType(ptr noundef nonnull %0, ptr noundef nonnull %7, i32 noundef 0) #11
  %.not = icmp eq i32 %10, 0
  br i1 %.not, label %11, label %13

11:                                               ; preds = %9
  %12 = tail call i64 @stringObjectLen(ptr noundef nonnull %7) #11
  tail call void @addReplyLongLong(ptr noundef nonnull %0, i64 noundef %12) #11
  br label %13

13:                                               ; preds = %1, %9, %11
  ret void
}